; Function Attrs: nounwind uwtable
define noundef i32 @Pdr_ManSolve_test(ptr noundef readnone captures(none) %0, ptr noundef readonly captures(none) %1, ptr noundef readnone captures(none) %2) local_unnamed_addr #1 {
  %4 = getelementptr inbounds nuw i8, ptr %1, i64 148
  %5 = getelementptr inbounds nuw i8, ptr %1, i64 152
  %6 = load ptr, ptr %5, align 8, !tbaa !7
  %7 = icmp eq ptr %6, null
  br i1 %7, label %.split.us, label %.split

.split.us:                                        ; preds = %3, %.split.us
  br label %.split.us

.split:                                           ; preds = %3, %.split.backedge
  %.pre7 = phi ptr [ %.pre7.be, %.split.backedge ], [ %6, %3 ]
  %.not = icmp eq ptr %.pre7, null
  br i1 %.not, label %.split.backedge, label %8

8:                                                ; preds = %.split
  %9 = load i32, ptr %4, align 4, !tbaa !13
  %10 = tail call i32 %.pre7(i32 noundef %9) #13
  %.not6 = icmp eq i32 %10, 0
  br i1 %.not6, label %._crit_edge, label %11

._crit_edge:                                      ; preds = %8
  %.pre.pre = load ptr, ptr %5, align 8, !tbaa !7
  br label %.split.backedge

.split.backedge:                                  ; preds = %._crit_edge, %.split
  %.pre7.be = phi ptr [ %.pre.pre, %._crit_edge ], [ null, %.split ]
  br label %.split, !llvm.loop !14

11:                                               ; preds = %8
  ret i32 -1
}